target datalayout = "e-m:e-p270:32:32-p271:32:32-p272:64:64-i64:64-i128:128-f80:128-n8:16:32:64-S128"
target triple = "x86_64-pc-linux-gnu"

%struct._generic_SUNMatrix = type { ptr, ptr, ptr }
%struct._SUNMatrixContent_Band = type { i64, i64, i64, i64, i64, i64, ptr, i64, ptr }

; Function Attrs: nounwind uwtable
define ptr @SUNBandMatrix_Column(ptr noundef %0, i64 noundef %1) #0 {
  %3 = alloca ptr, align 8
  %4 = alloca i64, align 8
  %5 = alloca ptr, align 8
  store ptr %0, ptr %3, align 8, !tbaa !10
  store i64 %1, ptr %4, align 8, !tbaa !3
  call void @llvm.lifetime.start.p0(i64 8, ptr %5) #8
  %6 = load ptr, ptr %3, align 8, !tbaa !10
  %7 = getelementptr inbounds nuw %struct._generic_SUNMatrix, ptr %6, i32 0, i32 2
  %8 = load ptr, ptr %7, align 8, !tbaa !41
  store ptr %8, ptr %5, align 8, !tbaa !7
  %9 = load ptr, ptr %3, align 8, !tbaa !10
  %10 = getelementptr inbounds nuw %struct._generic_SUNMatrix, ptr %9, i32 0, i32 0
  %11 = load ptr, ptr %10, align 8, !tbaa !27
  %12 = getelementptr inbounds nuw %struct._SUNMatrixContent_Band, ptr %11, i32 0, i32 8
  %13 = load ptr, ptr %12, align 8, !tbaa !39
  %14 = load i64, ptr %4, align 8, !tbaa !3
  %15 = getelementptr inbounds ptr, ptr %13, i64 %14
  %16 = load ptr, ptr %15, align 8, !tbaa !40
  %17 = load ptr, ptr %3, align 8, !tbaa !10
  %18 = getelementptr inbounds nuw %struct._generic_SUNMatrix, ptr %17, i32 0, i32 0
  %19 = load ptr, ptr %18, align 8, !tbaa !27
  %20 = getelementptr inbounds nuw %struct._SUNMatrixContent_Band, ptr %19, i32 0, i32 5
  %21 = load i64, ptr %20, align 8, !tbaa !35
  %22 = getelementptr inbounds double, ptr %16, i64 %21
  call void @llvm.lifetime.end.p0(i64 8, ptr %5) #8
  ret ptr %22
}