; Function Attrs: mustprogress nofree norecurse nosync nounwind willreturn memory(read, inaccessiblemem: none) uwtable
define ptr @SUNBandMatrix_Column(ptr noundef readonly captures(none) %0, i64 noundef %1) local_unnamed_addr #11 {
  %3 = load ptr, ptr %0, align 8, !tbaa !20
  %4 = getelementptr inbounds nuw i8, ptr %3, i64 64
  %5 = load ptr, ptr %4, align 8, !tbaa !33
  %6 = getelementptr inbounds ptr, ptr %5, i64 %1
  %7 = load ptr, ptr %6, align 8, !tbaa !34
  %8 = getelementptr inbounds nuw i8, ptr %3, i64 40
  %9 = load i64, ptr %8, align 8, !tbaa !29
  %10 = getelementptr inbounds double, ptr %7, i64 %9
  ret ptr %10
}